; Function Attrs: nofree nounwind uwtable
define dso_local void @print_fields_uint32(ptr noundef readonly captures(none) %0, ptr noundef readonly captures(address_is_null) %1, i32 noundef %2) local_unnamed_addr #5 {
  %4 = load i32, ptr %0, align 8
  %5 = tail call i32 @llvm.abs.i32(i32 %4, i1 true)
  %.not = icmp eq ptr %1, null
  br i1 %.not, label %.thread, label %6

6:                                                ; preds = %3
  %7 = load i32, ptr %1, align 4
  %or.cond = icmp ugt i32 %7, -3
  br i1 %or.cond, label %.thread, label %24

.thread:                                          ; preds = %3, %6
  %8 = load i32, ptr @print_fields_parsable_print, align 4
  %9 = icmp eq i32 %8, 2
  %10 = icmp ne i32 %2, 0
  %or.cond3 = and i1 %10, %9
  br i1 %or.cond3, label %46, label %11

11:                                               ; preds = %.thread
  %12 = icmp eq i32 %8, 0
  %13 = load ptr, ptr @fields_delimiter, align 8
  %14 = icmp ne ptr %13, null
  %or.cond5 = select i1 %12, i1 true, i1 %14
  br i1 %or.cond5, label %18, label %15

15:                                               ; preds = %11
  %16 = load ptr, ptr @stdout, align 8
  %17 = tail call noundef i32 @putc(i32 noundef 124, ptr noundef %16)
  br label %46

18:                                               ; preds = %11
  %19 = icmp ne i32 %8, 0
  %or.cond7 = select i1 %19, i1 %14, i1 false
  br i1 %or.cond7, label %20, label %22

20:                                               ; preds = %18
  %21 = tail call i32 (ptr, ...) @printf(ptr noundef nonnull dereferenceable(1) @.str, ptr noundef nonnull %13)
  br label %46

22:                                               ; preds = %18
  %23 = tail call i32 (ptr, ...) @printf(ptr noundef nonnull dereferenceable(1) @.str.9, i32 noundef %4, ptr noundef nonnull @.str.7)
  br label %46

24:                                               ; preds = %6
  %25 = load i32, ptr @print_fields_parsable_print, align 4
  %26 = icmp eq i32 %25, 2
  %27 = icmp ne i32 %2, 0
  %or.cond9 = and i1 %27, %26
  br i1 %or.cond9, label %28, label %30

28:                                               ; preds = %24
  %29 = tail call i32 (ptr, ...) @printf(ptr noundef nonnull dereferenceable(1) @.str.10, i32 noundef %7)
  br label %46

30:                                               ; preds = %24
  %31 = icmp eq i32 %25, 0
  %32 = load ptr, ptr @fields_delimiter, align 8
  %33 = icmp ne ptr %32, null
  %or.cond11 = select i1 %31, i1 true, i1 %33
  br i1 %or.cond11, label %36, label %34

34:                                               ; preds = %30
  %35 = tail call i32 (ptr, ...) @printf(ptr noundef nonnull dereferenceable(1) @.str.11, i32 noundef %7)
  br label %46

36:                                               ; preds = %30
  %37 = icmp ne i32 %25, 0
  %or.cond13 = select i1 %37, i1 %33, i1 false
  br i1 %or.cond13, label %38, label %40

38:                                               ; preds = %36
  %39 = tail call i32 (ptr, ...) @printf(ptr noundef nonnull dereferenceable(1) @.str.12, i32 noundef %7, ptr noundef nonnull %32)
  br label %46

40:                                               ; preds = %36
  %41 = icmp sgt i32 %4, -1
  br i1 %41, label %42, label %44

42:                                               ; preds = %40
  %43 = tail call i32 (ptr, ...) @printf(ptr noundef nonnull dereferenceable(1) @.str.13, i32 noundef %5, i32 noundef %7)
  br label %46

44:                                               ; preds = %40
  %45 = tail call i32 (ptr, ...) @printf(ptr noundef nonnull dereferenceable(1) @.str.14, i32 noundef %5, i32 noundef %7)
  br label %46

46:                                               ; preds = %28, %38, %44, %42, %34, %.thread, %20, %22, %15
  ret void
}